target datalayout = "e-m:e-p270:32:32-p271:32:32-p272:64:64-i64:64-i128:128-f80:128-n8:16:32:64-S128"
target triple = "x86_64-pc-linux-gnu"

@.str.2 = private unnamed_addr constant [9 x i8] c"pqcomm.c\00", align 1
@MyProcPort = external global ptr, align 8
@internal_flush_buffer.last_reported_send_errno = internal global i32 0, align 4
@.str.40 = private unnamed_addr constant [34 x i8] c"could not send data to client: %m\00", align 1
@__func__.internal_flush_buffer = private unnamed_addr constant [22 x i8] c"internal_flush_buffer\00", align 1
@ClientConnectionLost = external global i32, align 4
@InterruptPending = external global i32, align 4

; Function Attrs: noinline nounwind uwtable
define internal i32 @internal_flush_buffer(ptr noundef %0, ptr noundef %1, ptr noundef %2) #13 {
  %4 = alloca i32, align 4
  %5 = alloca ptr, align 8
  %6 = alloca ptr, align 8
  %7 = alloca ptr, align 8
  %8 = alloca ptr, align 8
  %9 = alloca ptr, align 8
  %10 = alloca i32, align 4
  %11 = alloca i32, align 4
  store ptr %0, ptr %5, align 8
  store ptr %1, ptr %6, align 8
  store ptr %2, ptr %7, align 8
  call void @llvm.lifetime.start.p0(i64 8, ptr %8) #14
  %12 = load ptr, ptr %5, align 8
  %13 = load ptr, ptr %6, align 8
  %14 = load i64, ptr %13, align 8
  %15 = getelementptr inbounds nuw i8, ptr %12, i64 %14
  store ptr %15, ptr %8, align 8
  call void @llvm.lifetime.start.p0(i64 8, ptr %9) #14
  %16 = load ptr, ptr %5, align 8
  %17 = load ptr, ptr %7, align 8
  %18 = load i64, ptr %17, align 8
  %19 = getelementptr inbounds nuw i8, ptr %16, i64 %18
  store ptr %19, ptr %9, align 8
  br label %20

20:                                               ; preds = %84, %82, %3
  %21 = load ptr, ptr %8, align 8
  %22 = load ptr, ptr %9, align 8
  %23 = icmp ult ptr %21, %22
  br i1 %23, label %24, label %85

24:                                               ; preds = %20
  call void @llvm.lifetime.start.p0(i64 4, ptr %10) #14
  %25 = load ptr, ptr @MyProcPort, align 8
  %26 = load ptr, ptr %8, align 8
  %27 = load ptr, ptr %9, align 8
  %28 = load ptr, ptr %8, align 8
  %29 = ptrtoint ptr %27 to i64
  %30 = ptrtoint ptr %28 to i64
  %31 = sub i64 %29, %30
  %32 = call i64 @secure_write(ptr noundef %25, ptr noundef %26, i64 noundef %31)
  %33 = trunc i64 %32 to i32
  store i32 %33, ptr %10, align 4
  %34 = load i32, ptr %10, align 4
  %35 = icmp sle i32 %34, 0
  br i1 %35, label %36, label %72

36:                                               ; preds = %24
  %37 = call ptr @__errno_location() #17
  %38 = load i32, ptr %37, align 4
  %39 = icmp eq i32 %38, 4
  br i1 %39, label %40, label %41

40:                                               ; preds = %36
  store i32 2, ptr %11, align 4
  br label %82, !llvm.loop !19

41:                                               ; preds = %36
  %42 = call ptr @__errno_location() #17
  %43 = load i32, ptr %42, align 4
  %44 = icmp eq i32 %43, 11
  br i1 %44, label %49, label %45

45:                                               ; preds = %41
  %46 = call ptr @__errno_location() #17
  %47 = load i32, ptr %46, align 4
  %48 = icmp eq i32 %47, 11
  br i1 %48, label %49, label %50

49:                                               ; preds = %45, %41
  store i32 0, ptr %4, align 4
  store i32 1, ptr %11, align 4
  br label %82

50:                                               ; preds = %45
  %51 = call ptr @__errno_location() #17
  %52 = load i32, ptr %51, align 4
  %53 = load i32, ptr @internal_flush_buffer.last_reported_send_errno, align 4
  %54 = icmp ne i32 %52, %53
  br i1 %54, label %55, label %69

55:                                               ; preds = %50
  %56 = call ptr @__errno_location() #17
  %57 = load i32, ptr %56, align 4
  store i32 %57, ptr @internal_flush_buffer.last_reported_send_errno, align 4
  br label %58

58:                                               ; preds = %55
  br i1 false, label %59, label %61

59:                                               ; preds = %58
  %60 = call zeroext i1 @errstart_cold(i32 noundef 16, ptr noundef null) #15
  br i1 %60, label %63, label %66

61:                                               ; preds = %58
  %62 = call zeroext i1 @errstart(i32 noundef 16, ptr noundef null)
  br i1 %62, label %63, label %66

63:                                               ; preds = %61, %59
  %64 = call i32 @errcode_for_socket_access()
  %65 = call i32 (ptr, ...) @errmsg(ptr noundef @.str.40)
  call void @errfinish(ptr noundef @.str.2, i32 noundef 1402, ptr noundef @__func__.internal_flush_buffer)
  br label %66

66:                                               ; preds = %63, %61, %59
  br label %67

67:                                               ; preds = %66
  br label %68

68:                                               ; preds = %67
  br label %69

69:                                               ; preds = %68, %50
  %70 = load ptr, ptr %7, align 8
  store i64 0, ptr %70, align 8
  %71 = load ptr, ptr %6, align 8
  store i64 0, ptr %71, align 8
  store volatile i32 1, ptr @ClientConnectionLost, align 4
  store volatile i32 1, ptr @InterruptPending, align 4
  store i32 -1, ptr %4, align 4
  store i32 1, ptr %11, align 4
  br label %82

72:                                               ; preds = %24
  store i32 0, ptr @internal_flush_buffer.last_reported_send_errno, align 4
  %73 = load i32, ptr %10, align 4
  %74 = load ptr, ptr %8, align 8
  %75 = sext i32 %73 to i64
  %76 = getelementptr inbounds i8, ptr %74, i64 %75
  store ptr %76, ptr %8, align 8
  %77 = load i32, ptr %10, align 4
  %78 = sext i32 %77 to i64
  %79 = load ptr, ptr %6, align 8
  %80 = load i64, ptr %79, align 8
  %81 = add i64 %80, %78
  store i64 %81, ptr %79, align 8
  store i32 0, ptr %11, align 4
  br label %82

82:                                               ; preds = %72, %69, %49, %40
  call void @llvm.lifetime.end.p0(i64 4, ptr %10) #14
  %83 = load i32, ptr %11, align 4
  switch i32 %83, label %88 [
    i32 0, label %84
    i32 2, label %20
  ]

84:                                               ; preds = %82
  br label %20, !llvm.loop !19

85:                                               ; preds = %20
  %86 = load ptr, ptr %7, align 8
  store i64 0, ptr %86, align 8
  %87 = load ptr, ptr %6, align 8
  store i64 0, ptr %87, align 8
  store i32 0, ptr %4, align 4
  store i32 1, ptr %11, align 4
  br label %88

88:                                               ; preds = %85, %82
  call void @llvm.lifetime.end.p0(i64 8, ptr %9) #14
  call void @llvm.lifetime.end.p0(i64 8, ptr %8) #14
  %89 = load i32, ptr %4, align 4
  ret i32 %89
}