; Function Attrs: noinline nounwind uwtable
define internal fastcc range(i32 -1, 1) i32 @internal_flush_buffer(ptr noundef %0, ptr noundef captures(none) %1, ptr noundef captures(none) %2) unnamed_addr #17 {
  %4 = load i64, ptr %1, align 8
  %5 = load i64, ptr %2, align 8
  %6 = getelementptr inbounds nuw i8, ptr %0, i64 %5
  %7 = icmp samesign ult i64 %4, %5
  br i1 %7, label %.lr.ph, label %._crit_edge

.lr.ph:                                           ; preds = %3
  %8 = getelementptr inbounds nuw i8, ptr %0, i64 %4
  %9 = ptrtoint ptr %6 to i64
  br label %10

10:                                               ; preds = %.lr.ph, %33
  %.02029 = phi ptr [ %8, %.lr.ph ], [ %.121, %33 ]
  %11 = load ptr, ptr @MyProcPort, align 8
  %12 = ptrtoint ptr %.02029 to i64
  %13 = sub i64 %9, %12
  %14 = tail call i64 @secure_write(ptr noundef %11, ptr noundef %.02029, i64 noundef %13) #21
  %15 = trunc i64 %14 to i32
  %16 = icmp slt i32 %15, 1
  br i1 %16, label %17, label %28

17:                                               ; preds = %10
  %18 = tail call ptr @__errno_location() #24
  %19 = load i32, ptr %18, align 4
  switch i32 %19, label %20 [
    i32 4, label %33
    i32 11, label %.thread
  ]

20:                                               ; preds = %17
  %21 = load i32, ptr @internal_flush_buffer.last_reported_send_errno, align 4
  %.not = icmp eq i32 %19, %21
  br i1 %.not, label %27, label %22

22:                                               ; preds = %20
  store i32 %19, ptr @internal_flush_buffer.last_reported_send_errno, align 4
  %23 = tail call zeroext i1 @errstart(i32 noundef 16, ptr noundef null) #21
  br i1 %23, label %24, label %27

24:                                               ; preds = %22
  %25 = tail call i32 @errcode_for_socket_access() #21
  %26 = tail call i32 (ptr, ...) @errmsg(ptr noundef nonnull @.str.40) #21
  tail call void @errfinish(ptr noundef nonnull @.str.2, i32 noundef 1402, ptr noundef nonnull @__func__.internal_flush_buffer) #21
  br label %27

27:                                               ; preds = %22, %24, %20
  store i64 0, ptr %2, align 8
  store i64 0, ptr %1, align 8
  store volatile i32 1, ptr @ClientConnectionLost, align 4
  store volatile i32 1, ptr @InterruptPending, align 4
  br label %.thread

28:                                               ; preds = %10
  store i32 0, ptr @internal_flush_buffer.last_reported_send_errno, align 4
  %29 = and i64 %14, 2147483647
  %30 = getelementptr inbounds nuw i8, ptr %.02029, i64 %29
  %31 = load i64, ptr %1, align 8
  %32 = add i64 %31, %29
  store i64 %32, ptr %1, align 8
  br label %33

33:                                               ; preds = %17, %28
  %.121 = phi ptr [ %30, %28 ], [ %.02029, %17 ]
  %34 = icmp ult ptr %.121, %6
  br i1 %34, label %10, label %._crit_edge

._crit_edge:                                      ; preds = %33, %3
  store i64 0, ptr %2, align 8
  store i64 0, ptr %1, align 8
  br label %.thread

.thread:                                          ; preds = %17, %27, %._crit_edge
  %.2 = phi i32 [ 0, %._crit_edge ], [ -1, %27 ], [ 0, %17 ]
  ret i32 %.2
}